; Function Attrs: mustprogress nofree norecurse nosync nounwind willreturn memory(read, argmem: write, inaccessiblemem: none) uwtable
define dso_local void @_ZN4Luau12CstStatLocalC2ENS_8AstArrayINS_8PositionEEES3_(ptr noundef nonnull writeonly align 8 captures(none) dereferenceable(40) initializes((0, 4), (8, 40)) %0, ptr %1, i64 %2, ptr %3, i64 %4) unnamed_addr #4 align 2 {
  %6 = load i32, ptr @_ZN4Luau7CstRttiINS_12CstStatLocalEE5valueE, align 4, !tbaa !4
  store i32 %6, ptr %0, align 8, !tbaa !8
  %7 = getelementptr inbounds nuw i8, ptr %0, i64 8
  store ptr %1, ptr %7, align 8, !tbaa !22
  %.sroa.22.0..sroa_idx = getelementptr inbounds nuw i8, ptr %0, i64 16
  store i64 %2, ptr %.sroa.22.0..sroa_idx, align 8, !tbaa !14
  %8 = getelementptr inbounds nuw i8, ptr %0, i64 24
  store ptr %3, ptr %8, align 8, !tbaa !22
  %.sroa.2.0..sroa_idx = getelementptr inbounds nuw i8, ptr %0, i64 32
  store i64 %4, ptr %.sroa.2.0..sroa_idx, align 8, !tbaa !14
  ret void
}